target datalayout = "e-m:e-p270:32:32-p271:32:32-p272:64:64-i64:64-i128:128-f80:128-n8:16:32:64-S128"
target triple = "x86_64-pc-linux-gnu"

%struct.PROV_SM2_CTX = type { ptr, ptr, %struct.PROV_DIGEST }
%struct.PROV_DIGEST = type { ptr, ptr, ptr }

@.str.1 = private unnamed_addr constant [4 x i8] c"SM3\00", align 1

; Function Attrs: nounwind uwtable
define internal ptr @sm2_get_md(ptr noundef %0) #0 {
  %2 = alloca ptr, align 8
  %3 = alloca ptr, align 8
  store ptr %0, ptr %2, align 8, !tbaa !3
  call void @llvm.lifetime.start.p0(i64 8, ptr %3) #6
  %4 = load ptr, ptr %2, align 8, !tbaa !3
  %5 = getelementptr inbounds nuw %struct.PROV_SM2_CTX, ptr %4, i32 0, i32 2
  %6 = call ptr @ossl_prov_digest_md(ptr noundef %5)
  store ptr %6, ptr %3, align 8, !tbaa !23
  %7 = load ptr, ptr %3, align 8, !tbaa !23
  %8 = icmp eq ptr %7, null
  br i1 %8, label %9, label %16

9:                                                ; preds = %1
  %10 = load ptr, ptr %2, align 8, !tbaa !3
  %11 = getelementptr inbounds nuw %struct.PROV_SM2_CTX, ptr %10, i32 0, i32 2
  %12 = load ptr, ptr %2, align 8, !tbaa !3
  %13 = getelementptr inbounds nuw %struct.PROV_SM2_CTX, ptr %12, i32 0, i32 0
  %14 = load ptr, ptr %13, align 8, !tbaa !7
  %15 = call ptr @ossl_prov_digest_fetch(ptr noundef %11, ptr noundef %14, ptr noundef @.str.1, ptr noundef null)
  store ptr %15, ptr %3, align 8, !tbaa !23
  br label %16

16:                                               ; preds = %9, %1
  %17 = load ptr, ptr %3, align 8, !tbaa !23
  call void @llvm.lifetime.end.p0(i64 8, ptr %3) #6
  ret ptr %17
}

; Function Attrs: nounwind uwtable
define internal i32 @sm2_asym_decrypt(ptr noundef %0, ptr noundef %1, ptr noundef %2, i64 noundef %3, ptr noundef %4, i64 noundef %5) #0 {
  %7 = alloca i32, align 4
  %8 = alloca ptr, align 8
  %9 = alloca ptr, align 8
  %10 = alloca ptr, align 8
  %11 = alloca i64, align 8
  %12 = alloca ptr, align 8
  %13 = alloca i64, align 8
  %14 = alloca ptr, align 8
  %15 = alloca ptr, align 8
  %16 = alloca i32, align 4
  store ptr %0, ptr %8, align 8, !tbaa !3
  store ptr %1, ptr %9, align 8, !tbaa !17
  store ptr %2, ptr %10, align 8, !tbaa !19
  store i64 %3, ptr %11, align 8, !tbaa !21
  store ptr %4, ptr %12, align 8, !tbaa !17
  store i64 %5, ptr %13, align 8, !tbaa !21
  call void @llvm.lifetime.start.p0(i64 8, ptr %14) #6
  %17 = load ptr, ptr %8, align 8, !tbaa !3
  store ptr %17, ptr %14, align 8, !tbaa !3
  call void @llvm.lifetime.start.p0(i64 8, ptr %15) #6
  %18 = load ptr, ptr %14, align 8, !tbaa !3
  %19 = call ptr @sm2_get_md(ptr noundef %18)
  store ptr %19, ptr %15, align 8, !tbaa !23
  %20 = load ptr, ptr %15, align 8, !tbaa !23
  %21 = icmp eq ptr %20, null
  br i1 %21, label %22, label %23

22:                                               ; preds = %6
  store i32 0, ptr %7, align 4
  store i32 1, ptr %16, align 4
  br label %44

23:                                               ; preds = %6
  %24 = load ptr, ptr %9, align 8, !tbaa !17
  %25 = icmp eq ptr %24, null
  br i1 %25, label %26, label %34

26:                                               ; preds = %23
  %27 = load ptr, ptr %12, align 8, !tbaa !17
  %28 = load i64, ptr %13, align 8, !tbaa !21
  %29 = load ptr, ptr %10, align 8, !tbaa !19
  %30 = call i32 @ossl_sm2_plaintext_size(ptr noundef %27, i64 noundef %28, ptr noundef %29)
  %31 = icmp ne i32 %30, 0
  br i1 %31, label %33, label %32

32:                                               ; preds = %26
  store i32 0, ptr %7, align 4
  store i32 1, ptr %16, align 4
  br label %44

33:                                               ; preds = %26
  store i32 1, ptr %7, align 4
  store i32 1, ptr %16, align 4
  br label %44

34:                                               ; preds = %23
  %35 = load ptr, ptr %14, align 8, !tbaa !3
  %36 = getelementptr inbounds nuw %struct.PROV_SM2_CTX, ptr %35, i32 0, i32 1
  %37 = load ptr, ptr %36, align 8, !tbaa !16
  %38 = load ptr, ptr %15, align 8, !tbaa !23
  %39 = load ptr, ptr %12, align 8, !tbaa !17
  %40 = load i64, ptr %13, align 8, !tbaa !21
  %41 = load ptr, ptr %9, align 8, !tbaa !17
  %42 = load ptr, ptr %10, align 8, !tbaa !19
  %43 = call i32 @ossl_sm2_decrypt(ptr noundef %37, ptr noundef %38, ptr noundef %39, i64 noundef %40, ptr noundef %41, ptr noundef %42)
  store i32 %43, ptr %7, align 4
  store i32 1, ptr %16, align 4
  br label %44

44:                                               ; preds = %34, %33, %32, %22
  call void @llvm.lifetime.end.p0(i64 8, ptr %15) #6
  call void @llvm.lifetime.end.p0(i64 8, ptr %14) #6
  %45 = load i32, ptr %7, align 4
  ret i32 %45
}