; Function Attrs: nounwind uwtable
define internal i32 @sm2_asym_decrypt(ptr noundef %0, ptr noundef %1, ptr noundef %2, i64 %3, ptr noundef %4, i64 noundef %5) #0 {
  %7 = getelementptr inbounds nuw i8, ptr %0, i64 16
  %8 = tail call ptr @ossl_prov_digest_md(ptr noundef nonnull %7) #5
  %9 = icmp eq ptr %8, null
  br i1 %9, label %sm2_get_md.exit, label %sm2_get_md.exit.thread

sm2_get_md.exit:                                  ; preds = %6
  %10 = load ptr, ptr %0, align 8, !tbaa !3
  %11 = tail call ptr @ossl_prov_digest_fetch(ptr noundef nonnull %7, ptr noundef %10, ptr noundef nonnull @.str.1, ptr noundef null) #5
  %12 = icmp eq ptr %11, null
  br i1 %12, label %20, label %sm2_get_md.exit.thread

sm2_get_md.exit.thread:                           ; preds = %6, %sm2_get_md.exit
  %.0.i16 = phi ptr [ %11, %sm2_get_md.exit ], [ %8, %6 ]
  %13 = icmp eq ptr %1, null
  br i1 %13, label %14, label %16

14:                                               ; preds = %sm2_get_md.exit.thread
  %15 = tail call i32 @ossl_sm2_plaintext_size(ptr noundef %4, i64 noundef %5, ptr noundef %2) #5
  %.not = icmp ne i32 %15, 0
  %. = zext i1 %.not to i32
  br label %20

16:                                               ; preds = %sm2_get_md.exit.thread
  %17 = getelementptr inbounds nuw i8, ptr %0, i64 8
  %18 = load ptr, ptr %17, align 8, !tbaa !13
  %19 = tail call i32 @ossl_sm2_decrypt(ptr noundef %18, ptr noundef nonnull %.0.i16, ptr noundef %4, i64 noundef %5, ptr noundef nonnull %1, ptr noundef %2) #5
  br label %20

20:                                               ; preds = %14, %sm2_get_md.exit, %16
  %.0 = phi i32 [ %19, %16 ], [ 0, %sm2_get_md.exit ], [ %., %14 ]
  ret i32 %.0
}